target datalayout = "e-m:e-p270:32:32-p271:32:32-p272:64:64-i64:64-i128:128-f80:128-n8:16:32:64-S128"
target triple = "x86_64-unknown-linux-gnu"

%"class.std::set.0" = type { %"class.std::_Rb_tree.1" }
%"class.std::_Rb_tree.1" = type { %"struct.std::_Rb_tree<QuantLib::Observer *, QuantLib::Observer *, std::_Identity<QuantLib::Observer *>, std::less<QuantLib::Observer *>>::_Rb_tree_impl" }
%"struct.std::_Rb_tree<QuantLib::Observer *, QuantLib::Observer *, std::_Identity<QuantLib::Observer *>, std::less<QuantLib::Observer *>>::_Rb_tree_impl" = type { [8 x i8], %"struct.std::_Rb_tree_header" }
%"struct.std::_Rb_tree_header" = type { %"struct.std::_Rb_tree_node_base", i64 }
%"struct.std::_Rb_tree_node_base" = type { i32, ptr, ptr, ptr }
%"class.QuantLib::Date" = type { i64 }
%"class.boost::detail::shared_count" = type { ptr }
%"class.boost::optional.33" = type { %"class.boost::optional_detail::tc_optional_base.34" }
%"class.boost::optional_detail::tc_optional_base.34" = type { i8, i8 }
%"class.std::set" = type { %"class.std::_Rb_tree" }
%"class.std::_Rb_tree" = type { %"struct.std::_Rb_tree<boost::shared_ptr<QuantLib::Observable>, boost::shared_ptr<QuantLib::Observable>, std::_Identity<boost::shared_ptr<QuantLib::Observable>>, std::less<boost::shared_ptr<QuantLib::Observable>>>::_Rb_tree_impl" }
%"struct.std::_Rb_tree<boost::shared_ptr<QuantLib::Observable>, boost::shared_ptr<QuantLib::Observable>, std::_Identity<boost::shared_ptr<QuantLib::Observable>>, std::less<boost::shared_ptr<QuantLib::Observable>>>::_Rb_tree_impl" = type { [8 x i8], %"struct.std::_Rb_tree_header" }
%"class.QuantLib::Observable" = type { ptr, %"class.std::set.0" }
%"class.QuantLib::DayCounter" = type { %"class.boost::shared_ptr.8" }
%"class.boost::shared_ptr.8" = type { ptr, %"class.boost::detail::shared_count" }
%"class.QuantLib::CdsHelper" = type { %"class.QuantLib::RelativeDateBootstrapHelper", %"class.QuantLib::Period", i32, %"class.QuantLib::Calendar", i32, i32, i32, %"class.QuantLib::DayCounter", double, %"class.QuantLib::Handle.28", i8, i8, %"class.QuantLib::DayCounter", i8, i32, %"class.QuantLib::Schedule", %"class.boost::shared_ptr.39", %"class.QuantLib::RelinkableHandle", %"class.QuantLib::Date", %"class.QuantLib::Date" }
%"class.QuantLib::RelativeDateBootstrapHelper" = type { %"class.QuantLib::BootstrapHelper", %"class.QuantLib::Date" }
%"class.QuantLib::BootstrapHelper" = type { %"class.QuantLib::Observer", %"class.QuantLib::Observable", %"class.QuantLib::Handle", ptr, %"class.QuantLib::Date", %"class.QuantLib::Date", %"class.QuantLib::Date", %"class.QuantLib::Date", %"class.QuantLib::Date" }
%"class.QuantLib::Observer" = type { ptr, %"class.std::set" }
%"class.QuantLib::Handle" = type { %"class.boost::shared_ptr.27" }
%"class.boost::shared_ptr.27" = type { ptr, %"class.boost::detail::shared_count" }
%"class.QuantLib::Period" = type { i32, i32 }
%"class.QuantLib::Calendar" = type { %"class.boost::shared_ptr.9" }
%"class.boost::shared_ptr.9" = type { ptr, %"class.boost::detail::shared_count" }
%"class.QuantLib::Handle.28" = type { %"class.boost::shared_ptr.29" }
%"class.boost::shared_ptr.29" = type { ptr, %"class.boost::detail::shared_count" }
%"class.QuantLib::Schedule" = type { %"class.boost::optional", %"class.QuantLib::Calendar", i32, %"class.boost::optional.30", %"class.boost::optional.31", %"class.boost::optional.33", %"class.QuantLib::Date", %"class.QuantLib::Date", %"class.std::vector.13", %"class.std::vector.35" }
%"class.boost::optional" = type { %"class.boost::optional_detail::optional_base" }
%"class.boost::optional_detail::optional_base" = type { i8, [3 x i8], %"class.boost::optional_detail::aligned_storage" }
%"class.boost::optional_detail::aligned_storage" = type { %"union.boost::optional_detail::aligned_storage<QuantLib::Period>::dummy_u" }
%"union.boost::optional_detail::aligned_storage<QuantLib::Period>::dummy_u" = type { [8 x i8] }
%"class.boost::optional.30" = type { %"class.boost::optional_detail::tc_optional_base" }
%"class.boost::optional_detail::tc_optional_base" = type { i8, i32 }
%"class.boost::optional.31" = type { %"class.boost::optional_detail::tc_optional_base.32" }
%"class.boost::optional_detail::tc_optional_base.32" = type { i8, i32 }
%"class.std::vector.13" = type { %"struct.std::_Vector_base.14" }
%"struct.std::_Vector_base.14" = type { %"struct.std::_Vector_base<QuantLib::Date, std::allocator<QuantLib::Date>>::_Vector_impl" }
%"struct.std::_Vector_base<QuantLib::Date, std::allocator<QuantLib::Date>>::_Vector_impl" = type { %"struct.std::_Vector_base<QuantLib::Date, std::allocator<QuantLib::Date>>::_Vector_impl_data" }
%"struct.std::_Vector_base<QuantLib::Date, std::allocator<QuantLib::Date>>::_Vector_impl_data" = type { ptr, ptr, ptr }
%"class.std::vector.35" = type { %"struct.std::_Bvector_base" }
%"struct.std::_Bvector_base" = type { %"struct.std::_Bvector_base<std::allocator<bool>>::_Bvector_impl" }
%"struct.std::_Bvector_base<std::allocator<bool>>::_Bvector_impl" = type { %"struct.std::_Bvector_base<std::allocator<bool>>::_Bvector_impl_data" }
%"struct.std::_Bvector_base<std::allocator<bool>>::_Bvector_impl_data" = type { %"struct.std::_Bit_iterator", %"struct.std::_Bit_iterator", ptr }
%"struct.std::_Bit_iterator" = type { %"struct.std::_Bit_iterator_base.base", [4 x i8] }
%"struct.std::_Bit_iterator_base.base" = type <{ ptr, i32 }>
%"class.boost::shared_ptr.39" = type { ptr, %"class.boost::detail::shared_count" }
%"class.QuantLib::RelinkableHandle" = type { %"class.QuantLib::Handle.40" }
%"class.QuantLib::Handle.40" = type { %"class.boost::shared_ptr.41" }
%"class.boost::shared_ptr.41" = type { ptr, %"class.boost::detail::shared_count" }
%"class.QuantLib::UpfrontCdsHelper" = type { %"class.QuantLib::CdsHelper", i32, %"class.QuantLib::Date", double }

; Function Attrs: mustprogress uwtable
define i64 @_ZN8QuantLib16UpfrontCdsHelper11upfrontDateEv(ptr noundef nonnull align 8 dereferenceable(512) %this) #2 align 2 {
entry:
  %retval = alloca %"class.QuantLib::Date", align 8
  %this.addr = alloca ptr, align 8
  store ptr %this, ptr %this.addr, align 8, !tbaa !3
  %this1 = load ptr, ptr %this.addr, align 8
  %calendar_ = getelementptr inbounds nuw %"class.QuantLib::CdsHelper", ptr %this1, i32 0, i32 3
  %evaluationDate_ = getelementptr inbounds nuw %"class.QuantLib::RelativeDateBootstrapHelper", ptr %this1, i32 0, i32 1
  %upfrontSettlementDays_ = getelementptr inbounds nuw %"class.QuantLib::UpfrontCdsHelper", ptr %this1, i32 0, i32 1
  %0 = load i32, ptr %upfrontSettlementDays_, align 8, !tbaa !127
  %paymentConvention_ = getelementptr inbounds nuw %"class.QuantLib::CdsHelper", ptr %this1, i32 0, i32 5
  %1 = load i32, ptr %paymentConvention_, align 4, !tbaa !89
  %call = call i64 @_ZNK8QuantLib8Calendar7advanceERKNS_4DateEiNS_8TimeUnitENS_21BusinessDayConventionEb(ptr noundef nonnull align 8 dereferenceable(16) %calendar_, ptr noundef nonnull align 8 dereferenceable(8) %evaluationDate_, i32 noundef %0, i32 noundef 0, i32 noundef %1, i1 noundef zeroext false)
  %coerce.dive = getelementptr inbounds nuw %"class.QuantLib::Date", ptr %retval, i32 0, i32 0
  store i64 %call, ptr %coerce.dive, align 8
  %coerce.dive2 = getelementptr inbounds nuw %"class.QuantLib::Date", ptr %retval, i32 0, i32 0
  %2 = load i64, ptr %coerce.dive2, align 8
  ret i64 %2
}

; Function Attrs: mustprogress uwtable
define void @_ZN8QuantLib16UpfrontCdsHelper15initializeDatesEv(ptr noundef nonnull align 8 dereferenceable(512) %this) unnamed_addr #2 align 2 {
entry:
  %this.addr = alloca ptr, align 8
  %ref.tmp = alloca %"class.QuantLib::Date", align 8
  store ptr %this, ptr %this.addr, align 8, !tbaa !3
  %this1 = load ptr, ptr %this.addr, align 8
  call void @_ZN8QuantLib9CdsHelper15initializeDatesEv(ptr noundef nonnull align 8 dereferenceable(488) %this1)
  call void @llvm.lifetime.start.p0(i64 8, ptr %ref.tmp) #15
  %call = call i64 @_ZN8QuantLib16UpfrontCdsHelper11upfrontDateEv(ptr noundef nonnull align 8 dereferenceable(512) %this1)
  %coerce.dive = getelementptr inbounds nuw %"class.QuantLib::Date", ptr %ref.tmp, i32 0, i32 0
  store i64 %call, ptr %coerce.dive, align 8
  %upfrontDate_ = getelementptr inbounds nuw %"class.QuantLib::UpfrontCdsHelper", ptr %this1, i32 0, i32 2
  call void @llvm.memcpy.p0.p0.i64(ptr align 8 %upfrontDate_, ptr align 8 %ref.tmp, i64 8, i1 false), !tbaa.struct !98
  call void @llvm.lifetime.end.p0(i64 8, ptr %ref.tmp) #15
  ret void
}