; Function Attrs: mustprogress uwtable
define void @_ZN8QuantLib16UpfrontCdsHelper15initializeDatesEv(ptr noundef nonnull align 8 dereferenceable(512) %this) unnamed_addr #8 align 2 {
entry:
  tail call void @_ZN8QuantLib9CdsHelper15initializeDatesEv(ptr noundef nonnull align 8 dereferenceable(488) %this)
  %calendar_.i = getelementptr inbounds nuw i8, ptr %this, i64 200
  %evaluationDate_.i = getelementptr inbounds nuw i8, ptr %this, i64 176
  %upfrontSettlementDays_.i = getelementptr inbounds nuw i8, ptr %this, i64 488
  %0 = load i32, ptr %upfrontSettlementDays_.i, align 8, !tbaa !186
  %paymentConvention_.i = getelementptr inbounds nuw i8, ptr %this, i64 220
  %1 = load i32, ptr %paymentConvention_.i, align 4, !tbaa !96
  %call.i = tail call i64 @_ZNK8QuantLib8Calendar7advanceERKNS_4DateEiNS_8TimeUnitENS_21BusinessDayConventionEb(ptr noundef nonnull align 8 dereferenceable(16) %calendar_.i, ptr noundef nonnull align 8 dereferenceable(8) %evaluationDate_.i, i32 noundef %0, i32 noundef 0, i32 noundef %1, i1 noundef zeroext false)
  %upfrontDate_ = getelementptr inbounds nuw i8, ptr %this, i64 496
  store i64 %call.i, ptr %upfrontDate_, align 8, !tbaa !40
  ret void
}